target datalayout = "e-m:e-p270:32:32-p271:32:32-p272:64:64-i64:64-i128:128-f80:128-n8:16:32:64-S128"
target triple = "x86_64-pc-linux-gnu"

@addxvirus = dso_local global i32 0, align 4
@.str.5 = private unnamed_addr constant [16 x i8] c"X-Virus-Scanned\00", align 1
@.str.6 = private unnamed_addr constant [15 x i8] c"X-Virus-Status\00", align 1
@xvirushdr = dso_local global [300 x i8] zeroinitializer, align 16
@.str.62 = private unnamed_addr constant [50 x i8] c"Failed to remove existing X-Virus-Scanned header\0A\00", align 1
@.str.63 = private unnamed_addr constant [49 x i8] c"Failed to remove existing X-Virus-Status header\0A\00", align 1
@.str.64 = private unnamed_addr constant [38 x i8] c"Failed to add X-Virus-Scanned header\0A\00", align 1
@.str.65 = private unnamed_addr constant [37 x i8] c"Failed to add X-Virus-Status header\0A\00", align 1
@.str.66 = private unnamed_addr constant [41 x i8] c"Failed to insert X-Virus-Scanned header\0A\00", align 1
@.str.67 = private unnamed_addr constant [40 x i8] c"Failed to insert X-Virus-Status header\0A\00", align 1

; Function Attrs: nounwind uwtable
define internal void @add_x_header(ptr noundef %0, ptr noundef %1, i32 noundef %2, i32 noundef %3) #0 {
  %5 = alloca ptr, align 8
  %6 = alloca ptr, align 8
  %7 = alloca i32, align 4
  %8 = alloca i32, align 4
  store ptr %0, ptr %5, align 8
  store ptr %1, ptr %6, align 8
  store i32 %2, ptr %7, align 4
  store i32 %3, ptr %8, align 4
  %9 = load i32, ptr @addxvirus, align 4
  %10 = icmp eq i32 %9, 1
  br i1 %10, label %11, label %51

11:                                               ; preds = %4
  br label %12

12:                                               ; preds = %23, %11
  %13 = load i32, ptr %7, align 4
  %14 = icmp ne i32 %13, 0
  br i1 %14, label %15, label %24

15:                                               ; preds = %12
  %16 = load ptr, ptr %5, align 8
  %17 = load i32, ptr %7, align 4
  %18 = add i32 %17, -1
  store i32 %18, ptr %7, align 4
  %19 = call i32 @smfi_chgheader(ptr noundef %16, ptr noundef @.str.5, i32 noundef %17, ptr noundef null)
  %20 = icmp ne i32 %19, 0
  br i1 %20, label %21, label %23

21:                                               ; preds = %15
  %22 = call i32 (i32, ptr, ...) @logg(i32 noundef 4, ptr noundef @.str.62)
  br label %23

23:                                               ; preds = %21, %15
  br label %12

24:                                               ; preds = %12
  br label %25

25:                                               ; preds = %36, %24
  %26 = load i32, ptr %8, align 4
  %27 = icmp ne i32 %26, 0
  br i1 %27, label %28, label %37

28:                                               ; preds = %25
  %29 = load ptr, ptr %5, align 8
  %30 = load i32, ptr %8, align 4
  %31 = add i32 %30, -1
  store i32 %31, ptr %8, align 4
  %32 = call i32 @smfi_chgheader(ptr noundef %29, ptr noundef @.str.6, i32 noundef %30, ptr noundef null)
  %33 = icmp ne i32 %32, 0
  br i1 %33, label %34, label %36

34:                                               ; preds = %28
  %35 = call i32 (i32, ptr, ...) @logg(i32 noundef 4, ptr noundef @.str.63)
  br label %36

36:                                               ; preds = %34, %28
  br label %25

37:                                               ; preds = %25
  %38 = load ptr, ptr %5, align 8
  %39 = call i32 @smfi_addheader(ptr noundef %38, ptr noundef @.str.5, ptr noundef @xvirushdr)
  %40 = icmp ne i32 %39, 0
  br i1 %40, label %41, label %43

41:                                               ; preds = %37
  %42 = call i32 (i32, ptr, ...) @logg(i32 noundef 4, ptr noundef @.str.64)
  br label %43

43:                                               ; preds = %41, %37
  %44 = load ptr, ptr %5, align 8
  %45 = load ptr, ptr %6, align 8
  %46 = call i32 @smfi_addheader(ptr noundef %44, ptr noundef @.str.6, ptr noundef %45)
  %47 = icmp ne i32 %46, 0
  br i1 %47, label %48, label %50

48:                                               ; preds = %43
  %49 = call i32 (i32, ptr, ...) @logg(i32 noundef 4, ptr noundef @.str.65)
  br label %50

50:                                               ; preds = %48, %43
  br label %65

51:                                               ; preds = %4
  %52 = load ptr, ptr %5, align 8
  %53 = call i32 @smfi_insheader(ptr noundef %52, i32 noundef 1, ptr noundef @.str.5, ptr noundef @xvirushdr)
  %54 = icmp ne i32 %53, 0
  br i1 %54, label %55, label %57

55:                                               ; preds = %51
  %56 = call i32 (i32, ptr, ...) @logg(i32 noundef 4, ptr noundef @.str.66)
  br label %57

57:                                               ; preds = %55, %51
  %58 = load ptr, ptr %5, align 8
  %59 = load ptr, ptr %6, align 8
  %60 = call i32 @smfi_insheader(ptr noundef %58, i32 noundef 1, ptr noundef @.str.6, ptr noundef %59)
  %61 = icmp ne i32 %60, 0
  br i1 %61, label %62, label %64

62:                                               ; preds = %57
  %63 = call i32 (i32, ptr, ...) @logg(i32 noundef 4, ptr noundef @.str.67)
  br label %64

64:                                               ; preds = %62, %57
  br label %65

65:                                               ; preds = %64, %50
  ret void
}