; Function Attrs: nounwind uwtable
define internal fastcc void @add_x_header(ptr noundef %0, ptr noundef %1, i32 noundef %2, i32 noundef %3) unnamed_addr #0 {
  %5 = load i32, ptr @addxvirus, align 4
  %6 = icmp eq i32 %5, 1
  br i1 %6, label %.preheader19, label %22

.preheader19:                                     ; preds = %4
  %.not1320 = icmp eq i32 %2, 0
  br i1 %.not1320, label %.preheader, label %.lr.ph

.preheader:                                       ; preds = %11, %.preheader19
  %.not1422 = icmp eq i32 %3, 0
  br i1 %.not1422, label %._crit_edge, label %.lr.ph24

.lr.ph:                                           ; preds = %.preheader19, %11
  %.01121 = phi i32 [ %7, %11 ], [ %2, %.preheader19 ]
  %7 = add i32 %.01121, -1
  %8 = tail call i32 @smfi_chgheader(ptr noundef %0, ptr noundef nonnull @.str.5, i32 noundef %.01121, ptr noundef null) #17
  %.not18 = icmp eq i32 %8, 0
  br i1 %.not18, label %11, label %9

9:                                                ; preds = %.lr.ph
  %10 = tail call i32 (i32, ptr, ...) @logg(i32 noundef 4, ptr noundef nonnull @.str.62) #17
  br label %11

11:                                               ; preds = %9, %.lr.ph
  %.not13 = icmp eq i32 %7, 0
  br i1 %.not13, label %.preheader, label %.lr.ph

.lr.ph24:                                         ; preds = %.preheader, %16
  %.023 = phi i32 [ %12, %16 ], [ %3, %.preheader ]
  %12 = add i32 %.023, -1
  %13 = tail call i32 @smfi_chgheader(ptr noundef %0, ptr noundef nonnull @.str.6, i32 noundef %.023, ptr noundef null) #17
  %.not17 = icmp eq i32 %13, 0
  br i1 %.not17, label %16, label %14

14:                                               ; preds = %.lr.ph24
  %15 = tail call i32 (i32, ptr, ...) @logg(i32 noundef 4, ptr noundef nonnull @.str.63) #17
  br label %16

16:                                               ; preds = %14, %.lr.ph24
  %.not14 = icmp eq i32 %12, 0
  br i1 %.not14, label %._crit_edge, label %.lr.ph24

._crit_edge:                                      ; preds = %16, %.preheader
  %17 = tail call i32 @smfi_addheader(ptr noundef %0, ptr noundef nonnull @.str.5, ptr noundef nonnull @xvirushdr) #17
  %.not15 = icmp eq i32 %17, 0
  br i1 %.not15, label %20, label %18

18:                                               ; preds = %._crit_edge
  %19 = tail call i32 (i32, ptr, ...) @logg(i32 noundef 4, ptr noundef nonnull @.str.64) #17
  br label %20

20:                                               ; preds = %18, %._crit_edge
  %21 = tail call i32 @smfi_addheader(ptr noundef %0, ptr noundef nonnull @.str.6, ptr noundef %1) #17
  %.not16 = icmp eq i32 %21, 0
  br i1 %.not16, label %29, label %.sink.split

22:                                               ; preds = %4
  %23 = tail call i32 @smfi_insheader(ptr noundef %0, i32 noundef 1, ptr noundef nonnull @.str.5, ptr noundef nonnull @xvirushdr) #17
  %.not = icmp eq i32 %23, 0
  br i1 %.not, label %26, label %24

24:                                               ; preds = %22
  %25 = tail call i32 (i32, ptr, ...) @logg(i32 noundef 4, ptr noundef nonnull @.str.66) #17
  br label %26

26:                                               ; preds = %24, %22
  %27 = tail call i32 @smfi_insheader(ptr noundef %0, i32 noundef 1, ptr noundef nonnull @.str.6, ptr noundef %1) #17
  %.not12 = icmp eq i32 %27, 0
  br i1 %.not12, label %29, label %.sink.split

.sink.split:                                      ; preds = %26, %20
  %.str.67.sink = phi ptr [ @.str.65, %20 ], [ @.str.67, %26 ]
  %28 = tail call i32 (i32, ptr, ...) @logg(i32 noundef 4, ptr noundef nonnull %.str.67.sink) #17
  br label %29

29:                                               ; preds = %.sink.split, %26, %20
  ret void
}